target datalayout = "e-m:e-p270:32:32-p271:32:32-p272:64:64-i64:64-i128:128-f80:128-n8:16:32:64-S128"
target triple = "x86_64-pc-linux-gnu"

; Function Attrs: norecurse uwtable
define internal void @_ZN8LightGBM13BinaryLogloss4InitERKNS_8MetadataEi.omp_outlined.omp.reduction.reduction_func(ptr noundef %0, ptr noundef %1) #20 {
  %3 = alloca ptr, align 8
  %4 = alloca ptr, align 8
  store ptr %0, ptr %3, align 8, !tbaa !219
  store ptr %1, ptr %4, align 8, !tbaa !219
  %5 = load ptr, ptr %3, align 8
  %6 = load ptr, ptr %4, align 8
  %7 = getelementptr inbounds [2 x ptr], ptr %6, i64 0, i64 0
  %8 = load ptr, ptr %7, align 8
  %9 = getelementptr inbounds [2 x ptr], ptr %5, i64 0, i64 0
  %10 = load ptr, ptr %9, align 8
  %11 = getelementptr inbounds [2 x ptr], ptr %6, i64 0, i64 1
  %12 = load ptr, ptr %11, align 8
  %13 = getelementptr inbounds [2 x ptr], ptr %5, i64 0, i64 1
  %14 = load ptr, ptr %13, align 8
  %15 = load i32, ptr %10, align 4, !tbaa !141
  %16 = load i32, ptr %8, align 4, !tbaa !141
  %17 = add nsw i32 %15, %16
  store i32 %17, ptr %10, align 4, !tbaa !141
  %18 = load i32, ptr %14, align 4, !tbaa !141
  %19 = load i32, ptr %12, align 4, !tbaa !141
  %20 = add nsw i32 %18, %19
  store i32 %20, ptr %14, align 4, !tbaa !141
  ret void
}