; Function Attrs: mustprogress nofree norecurse nosync nounwind willreturn memory(readwrite, inaccessiblemem: none) uwtable
define internal void @_ZN8LightGBM13BinaryLogloss4InitERKNS_8MetadataEi.omp_outlined.omp.reduction.reduction_func(ptr noundef readonly captures(none) %0, ptr noundef readonly captures(none) %1) #18 {
  %3 = load ptr, ptr %1, align 8
  %4 = load ptr, ptr %0, align 8
  %5 = getelementptr inbounds nuw i8, ptr %1, i64 8
  %6 = load ptr, ptr %5, align 8
  %7 = getelementptr inbounds nuw i8, ptr %0, i64 8
  %8 = load ptr, ptr %7, align 8
  %9 = load i32, ptr %4, align 4, !tbaa !127
  %10 = load i32, ptr %3, align 4, !tbaa !127
  %11 = add nsw i32 %10, %9
  store i32 %11, ptr %4, align 4, !tbaa !127
  %12 = load i32, ptr %8, align 4, !tbaa !127
  %13 = load i32, ptr %6, align 4, !tbaa !127
  %14 = add nsw i32 %13, %12
  store i32 %14, ptr %8, align 4, !tbaa !127
  ret void
}